target datalayout = "e-m:e-p270:32:32-p271:32:32-p272:64:64-i64:64-i128:128-f80:128-n8:16:32:64-S128"
target triple = "x86_64-pc-linux-gnu"

%struct.ident_t = type { i32, i32, i32, i32, ptr }
%"class.LightGBM::RegressionL2loss" = type <{ %"class.LightGBM::ObjectiveFunction", i8, [3 x i8], i32, ptr, ptr, %"class.std::vector", i8, [7 x i8] }>
%"class.LightGBM::ObjectiveFunction" = type { ptr }
%"class.std::vector" = type { %"struct.std::_Vector_base" }
%"struct.std::_Vector_base" = type { %"struct.std::_Vector_base<float, std::allocator<float>>::_Vector_impl" }
%"struct.std::_Vector_base<float, std::allocator<float>>::_Vector_impl" = type { %"struct.std::_Vector_base<float, std::allocator<float>>::_Vector_impl_data" }
%"struct.std::_Vector_base<float, std::allocator<float>>::_Vector_impl_data" = type { ptr, ptr, ptr }

@1 = private unnamed_addr constant %struct.ident_t { i32 0, i32 514, i32 0, i32 22, ptr @0 }, align 8

; Function Attrs: alwaysinline norecurse nounwind uwtable
define internal void @_ZNK8LightGBM19RegressionGammaLoss12GetGradientsEPKdPfS3_.omp_outlined.83(ptr noalias noundef %0, ptr noalias noundef %1, ptr noundef %2, ptr noundef nonnull align 8 dereferenceable(8) %3, ptr noundef nonnull align 8 dereferenceable(8) %4, ptr noundef nonnull align 8 dereferenceable(8) %5) #16 {
  %7 = alloca ptr, align 8
  %8 = alloca ptr, align 8
  %9 = alloca ptr, align 8
  %10 = alloca ptr, align 8
  %11 = alloca ptr, align 8
  %12 = alloca ptr, align 8
  %13 = alloca i32, align 4
  %14 = alloca i32, align 4
  %15 = alloca i32, align 4
  %16 = alloca i32, align 4
  %17 = alloca i32, align 4
  %18 = alloca i32, align 4
  %19 = alloca i32, align 4
  %20 = alloca i32, align 4
  %21 = alloca i32, align 4
  %22 = alloca double, align 8
  store ptr %0, ptr %7, align 8, !tbaa !193
  store ptr %1, ptr %8, align 8, !tbaa !193
  store ptr %2, ptr %9, align 8, !tbaa !159
  store ptr %3, ptr %10, align 8, !tbaa !224
  store ptr %4, ptr %11, align 8, !tbaa !216
  store ptr %5, ptr %12, align 8, !tbaa !216
  %23 = load ptr, ptr %9, align 8, !tbaa !159
  %24 = load ptr, ptr %10, align 8, !tbaa !224
  %25 = load ptr, ptr %11, align 8, !tbaa !216
  %26 = load ptr, ptr %12, align 8, !tbaa !216
  call void @llvm.lifetime.start.p0(i64 4, ptr %13) #3
  call void @llvm.lifetime.start.p0(i64 4, ptr %14) #3
  %27 = getelementptr inbounds nuw %"class.LightGBM::RegressionL2loss", ptr %23, i32 0, i32 3
  %28 = load i32, ptr %27, align 4, !tbaa !188
  store i32 %28, ptr %14, align 4, !tbaa !141
  call void @llvm.lifetime.start.p0(i64 4, ptr %15) #3
  %29 = load i32, ptr %14, align 4, !tbaa !141
  %30 = sub nsw i32 %29, 0
  %31 = sdiv i32 %30, 1
  %32 = sub nsw i32 %31, 1
  store i32 %32, ptr %15, align 4, !tbaa !141
  call void @llvm.lifetime.start.p0(i64 4, ptr %16) #3
  store i32 0, ptr %16, align 4, !tbaa !141
  call void @llvm.lifetime.end.p0(i64 4, ptr %16) #3
  %33 = load i32, ptr %14, align 4, !tbaa !141
  %34 = icmp slt i32 0, %33
  br i1 %34, label %35, label %118

35:                                               ; preds = %6
  call void @llvm.lifetime.start.p0(i64 4, ptr %17) #3
  store i32 0, ptr %17, align 4, !tbaa !141
  call void @llvm.lifetime.start.p0(i64 4, ptr %18) #3
  %36 = load i32, ptr %15, align 4, !tbaa !141
  store i32 %36, ptr %18, align 4, !tbaa !141
  call void @llvm.lifetime.start.p0(i64 4, ptr %19) #3
  store i32 1, ptr %19, align 4, !tbaa !141
  call void @llvm.lifetime.start.p0(i64 4, ptr %20) #3
  store i32 0, ptr %20, align 4, !tbaa !141
  call void @llvm.lifetime.start.p0(i64 4, ptr %21) #3
  %37 = load ptr, ptr %7, align 8
  %38 = load i32, ptr %37, align 4, !tbaa !141
  call void @__kmpc_for_static_init_4(ptr @1, i32 %38, i32 34, ptr %20, ptr %17, ptr %18, ptr %19, i32 1, i32 1)
  %39 = load i32, ptr %18, align 4, !tbaa !141
  %40 = load i32, ptr %15, align 4, !tbaa !141
  %41 = icmp sgt i32 %39, %40
  br i1 %41, label %42, label %44

42:                                               ; preds = %35
  %43 = load i32, ptr %15, align 4, !tbaa !141
  br label %46

44:                                               ; preds = %35
  %45 = load i32, ptr %18, align 4, !tbaa !141
  br label %46

46:                                               ; preds = %44, %42
  %47 = phi i32 [ %43, %42 ], [ %45, %44 ]
  store i32 %47, ptr %18, align 4, !tbaa !141
  %48 = load i32, ptr %17, align 4, !tbaa !141
  store i32 %48, ptr %13, align 4, !tbaa !141
  br label %49

49:                                               ; preds = %111, %46
  %50 = load i32, ptr %13, align 4, !tbaa !141
  %51 = load i32, ptr %18, align 4, !tbaa !141
  %52 = icmp sle i32 %50, %51
  br i1 %52, label %54, label %53

53:                                               ; preds = %49
  br label %114

54:                                               ; preds = %49
  %55 = load i32, ptr %13, align 4, !tbaa !141
  %56 = mul nsw i32 %55, 1
  %57 = add nsw i32 0, %56
  store i32 %57, ptr %21, align 4, !tbaa !141
  call void @llvm.lifetime.start.p0(i64 8, ptr %22) #3
  %58 = load ptr, ptr %24, align 8, !tbaa !191
  %59 = load i32, ptr %21, align 4, !tbaa !141
  %60 = sext i32 %59 to i64
  %61 = getelementptr inbounds double, ptr %58, i64 %60
  %62 = load double, ptr %61, align 8, !tbaa !194
  %63 = fneg double %62
  %64 = call double @exp(double noundef %63) #3, !tbaa !141
  store double %64, ptr %22, align 8, !tbaa !194
  %65 = getelementptr inbounds nuw %"class.LightGBM::RegressionL2loss", ptr %23, i32 0, i32 4
  %66 = load ptr, ptr %65, align 8, !tbaa !189
  %67 = load i32, ptr %21, align 4, !tbaa !141
  %68 = sext i32 %67 to i64
  %69 = getelementptr inbounds float, ptr %66, i64 %68
  %70 = load float, ptr %69, align 4, !tbaa !210
  %71 = fpext float %70 to double
  %72 = load double, ptr %22, align 8, !tbaa !194
  %73 = fneg double %71
  %74 = call double @llvm.fmuladd.f64(double %73, double %72, double 1.000000e+00)
  %75 = getelementptr inbounds nuw %"class.LightGBM::RegressionL2loss", ptr %23, i32 0, i32 5
  %76 = load ptr, ptr %75, align 8, !tbaa !190
  %77 = load i32, ptr %21, align 4, !tbaa !141
  %78 = sext i32 %77 to i64
  %79 = getelementptr inbounds float, ptr %76, i64 %78
  %80 = load float, ptr %79, align 4, !tbaa !210
  %81 = fpext float %80 to double
  %82 = fmul double %74, %81
  %83 = fptrunc double %82 to float
  %84 = load ptr, ptr %25, align 8, !tbaa !192
  %85 = load i32, ptr %21, align 4, !tbaa !141
  %86 = sext i32 %85 to i64
  %87 = getelementptr inbounds float, ptr %84, i64 %86
  store float %83, ptr %87, align 4, !tbaa !210
  %88 = getelementptr inbounds nuw %"class.LightGBM::RegressionL2loss", ptr %23, i32 0, i32 4
  %89 = load ptr, ptr %88, align 8, !tbaa !189
  %90 = load i32, ptr %21, align 4, !tbaa !141
  %91 = sext i32 %90 to i64
  %92 = getelementptr inbounds float, ptr %89, i64 %91
  %93 = load float, ptr %92, align 4, !tbaa !210
  %94 = fpext float %93 to double
  %95 = load double, ptr %22, align 8, !tbaa !194
  %96 = fmul double %94, %95
  %97 = getelementptr inbounds nuw %"class.LightGBM::RegressionL2loss", ptr %23, i32 0, i32 5
  %98 = load ptr, ptr %97, align 8, !tbaa !190
  %99 = load i32, ptr %21, align 4, !tbaa !141
  %100 = sext i32 %99 to i64
  %101 = getelementptr inbounds float, ptr %98, i64 %100
  %102 = load float, ptr %101, align 4, !tbaa !210
  %103 = fpext float %102 to double
  %104 = fmul double %96, %103
  %105 = fptrunc double %104 to float
  %106 = load ptr, ptr %26, align 8, !tbaa !192
  %107 = load i32, ptr %21, align 4, !tbaa !141
  %108 = sext i32 %107 to i64
  %109 = getelementptr inbounds float, ptr %106, i64 %108
  store float %105, ptr %109, align 4, !tbaa !210
  call void @llvm.lifetime.end.p0(i64 8, ptr %22) #3
  br label %110

110:                                              ; preds = %54
  br label %111

111:                                              ; preds = %110
  %112 = load i32, ptr %13, align 4, !tbaa !141
  %113 = add nsw i32 %112, 1
  store i32 %113, ptr %13, align 4, !tbaa !141
  br label %49

114:                                              ; preds = %53
  br label %115

115:                                              ; preds = %114
  %116 = load ptr, ptr %7, align 8
  %117 = load i32, ptr %116, align 4, !tbaa !141
  call void @__kmpc_for_static_fini(ptr @1, i32 %117)
  call void @llvm.lifetime.end.p0(i64 4, ptr %21) #3
  call void @llvm.lifetime.end.p0(i64 4, ptr %20) #3
  call void @llvm.lifetime.end.p0(i64 4, ptr %19) #3
  call void @llvm.lifetime.end.p0(i64 4, ptr %18) #3
  call void @llvm.lifetime.end.p0(i64 4, ptr %17) #3
  br label %118

118:                                              ; preds = %115, %6
  call void @llvm.lifetime.end.p0(i64 4, ptr %15) #3
  call void @llvm.lifetime.end.p0(i64 4, ptr %14) #3
  call void @llvm.lifetime.end.p0(i64 4, ptr %13) #3
  ret void
}