; Function Attrs: alwaysinline norecurse nounwind uwtable
define internal void @_ZNK8LightGBM19RegressionGammaLoss12GetGradientsEPKdPfS3_.omp_outlined.83(ptr noalias noundef readonly captures(none) %0, ptr noalias readnone captures(none) %1, ptr noundef readonly captures(none) %2, ptr noundef nonnull readonly align 8 captures(none) dereferenceable(8) %3, ptr noundef nonnull readonly align 8 captures(none) dereferenceable(8) %4, ptr noundef nonnull readonly align 8 captures(none) dereferenceable(8) %5) #14 {
  %7 = alloca i32, align 4
  %8 = alloca i32, align 4
  %9 = alloca i32, align 4
  %10 = alloca i32, align 4
  %11 = getelementptr inbounds nuw i8, ptr %2, i64 12
  %12 = load i32, ptr %11, align 4, !tbaa !147
  %13 = icmp sgt i32 %12, 0
  br i1 %13, label %14, label %54

14:                                               ; preds = %6
  %15 = add nsw i32 %12, -1
  call void @llvm.lifetime.start.p0(i64 4, ptr nonnull %7) #15
  store i32 0, ptr %7, align 4, !tbaa !127
  call void @llvm.lifetime.start.p0(i64 4, ptr nonnull %8) #15
  store i32 %15, ptr %8, align 4, !tbaa !127
  call void @llvm.lifetime.start.p0(i64 4, ptr nonnull %9) #15
  store i32 1, ptr %9, align 4, !tbaa !127
  call void @llvm.lifetime.start.p0(i64 4, ptr nonnull %10) #15
  store i32 0, ptr %10, align 4, !tbaa !127
  %16 = load i32, ptr %0, align 4, !tbaa !127
  call void @__kmpc_for_static_init_4(ptr nonnull @1, i32 %16, i32 34, ptr nonnull %10, ptr nonnull %7, ptr nonnull %8, ptr nonnull %9, i32 1, i32 1)
  %17 = load i32, ptr %8, align 4, !tbaa !127
  %18 = call i32 @llvm.smin.i32(i32 %17, i32 %15)
  store i32 %18, ptr %8, align 4, !tbaa !127
  %19 = load i32, ptr %7, align 4, !tbaa !127
  %.not22 = icmp sgt i32 %19, %18
  br i1 %.not22, label %._crit_edge, label %.lr.ph

.lr.ph:                                           ; preds = %14
  %20 = load ptr, ptr %3, align 8, !tbaa !152
  %21 = getelementptr inbounds nuw i8, ptr %2, i64 16
  %22 = load ptr, ptr %21, align 8, !tbaa !148
  %23 = getelementptr inbounds nuw i8, ptr %2, i64 24
  %24 = load ptr, ptr %23, align 8, !tbaa !151
  %25 = load ptr, ptr %4, align 8, !tbaa !150
  %26 = load ptr, ptr %5, align 8, !tbaa !150
  %27 = sext i32 %19 to i64
  br label %28

28:                                               ; preds = %.lr.ph, %28
  %indvars.iv = phi i64 [ %27, %.lr.ph ], [ %indvars.iv.next, %28 ]
  %29 = getelementptr inbounds double, ptr %20, i64 %indvars.iv
  %30 = load double, ptr %29, align 8, !tbaa !153
  %31 = fneg double %30
  %32 = call double @exp(double noundef %31) #15, !tbaa !127
  %33 = getelementptr inbounds float, ptr %22, i64 %indvars.iv
  %34 = load float, ptr %33, align 4, !tbaa !175
  %35 = fpext float %34 to double
  %36 = fneg double %35
  %37 = call double @llvm.fmuladd.f64(double %36, double %32, double 1.000000e+00)
  %38 = getelementptr inbounds float, ptr %24, i64 %indvars.iv
  %39 = load float, ptr %38, align 4, !tbaa !175
  %40 = fpext float %39 to double
  %41 = fmul double %37, %40
  %42 = fptrunc double %41 to float
  %43 = getelementptr inbounds float, ptr %25, i64 %indvars.iv
  store float %42, ptr %43, align 4, !tbaa !175
  %44 = load float, ptr %33, align 4, !tbaa !175
  %45 = fpext float %44 to double
  %46 = fmul double %32, %45
  %47 = load float, ptr %38, align 4, !tbaa !175
  %48 = fpext float %47 to double
  %49 = fmul double %46, %48
  %50 = fptrunc double %49 to float
  %51 = getelementptr inbounds float, ptr %26, i64 %indvars.iv
  store float %50, ptr %51, align 4, !tbaa !175
  %indvars.iv.next = add nsw i64 %indvars.iv, 1
  %52 = load i32, ptr %8, align 4, !tbaa !127
  %53 = sext i32 %52 to i64
  %.not.not = icmp slt i64 %indvars.iv, %53
  br i1 %.not.not, label %28, label %._crit_edge

._crit_edge:                                      ; preds = %28, %14
  call void @__kmpc_for_static_fini(ptr nonnull @1, i32 %16)
  call void @llvm.lifetime.end.p0(i64 4, ptr nonnull %10) #15
  call void @llvm.lifetime.end.p0(i64 4, ptr nonnull %9) #15
  call void @llvm.lifetime.end.p0(i64 4, ptr nonnull %8) #15
  call void @llvm.lifetime.end.p0(i64 4, ptr nonnull %7) #15
  br label %54

54:                                               ; preds = %._crit_edge, %6
  ret void
}